Certificate:
    Data:
        Version: 3 (0x2)
        Serial Number:
            f2:46:8b:79:dc:b7:43:70
        Signature Algorithm: md5WithRSAEncryption
        Issuer: C=PL, ST=Somewhere, O=SomeON, OU=SomeOUN, CN=test/emailAddress=test@test
        Validity
            Not Before: Jun  2 18:05:32 2008 GMT
            Not After : Jun  1 18:05:32 2013 GMT
        Subject: C=PL, ST=Somewhere, O=SomeON, OU=SomeOUN, CN=test/emailAddress=test@test
        Subject Public Key Info:
            Public Key Algorithm: rsaEncryption
            RSA Public Key: (4096 bit)
                Modulus (4096 bit):
                    00:b3:89:41:7b:2c:44:29:fc:4f:b2:dd:12:fd:20:
                    73:e0:1e:7a:ee:d8:f6:a2:25:cb:b7:a1:21:fd:79:
                    a7:b2:f7:20:90:59:88:d7:1a:4a:50:ef:a0:46:7b:
                    63:d0:dc:d6:10:cd:43:7a:47:e2:b3:70:d1:de:90:
                    45:4a:da:90:ef:59:8b:54:be:79:16:b6:11:cb:af:
                    f6:ba:79:8c:79:b4:72:9d:9e:0e:43:bc:a9:8a:1f:
                    e9:d0:8f:de:7a:37:ee:0f:62:8c:a7:98:7b:3e:11:
                    6a:c9:bf:38:b2:b7:ba:cf:50:50:d6:42:74:7a:75:
                    5d:da:3a:04:9b:08:df:e7:77:ca:01:cb:11:cc:f8:
                    61:0f:e1:04:db:75:e0:c1:74:da:ab:d9:30:ae:43:
                    17:3c:ce:9d:1c:45:38:ab:1c:7a:9f:95:2c:70:91:
                    23:a9:98:3f:f1:0d:09:1e:46:cf:76:f8:09:2d:b3:
                    68:45:38:e0:87:e9:d2:36:bf:b4:02:6d:3b:4a:56:
                    f0:4a:c4:a0:33:ed:87:3d:9e:b5:c3:94:87:b5:1c:
                    ab:23:7a:ff:a3:6b:9f:8c:80:41:0f:2a:a2:40:69:
                    cc:92:1d:8e:38:63:c3:83:0e:d9:76:8d:6b:46:22:
                    a7:8a:5a:50:c8:a8:d8:cd:28:3f:e4:74:d6:c5:9f:
                    d3:09:8b:05:7a:26:fe:55:51:10:30:9c:41:ca:72:
                    d6:cb:96:3d:d6:56:bb:b5:27:82:77:b0:95:12:39:
                    e1:04:c3:da:5a:49:c2:e1:de:e2:17:c8:bc:92:60:
                    24:23:e9:5a:11:d2:06:fd:79:25:38:9c:ca:4b:6c:
                    ed:42:28:01:63:ea:4c:02:af:b1:a4:d4:9c:ea:31:
                    5a:d6:cc:8e:72:27:c1:b2:55:68:27:92:ad:53:a8:
                    1d:b6:fb:8f:a5:6d:75:cc:e5:23:42:a1:9b:b5:13:
                    39:ed:58:3f:f9:9c:24:39:e3:45:a3:3b:e3:29:f5:
                    aa:fe:2f:ec:86:31:23:f1:b7:9e:0d:5c:3e:c6:c7:
                    68:24:34:53:54:d4:91:06:d9:9d:bd:66:23:5b:df:
                    39:4f:8e:f0:63:23:62:25:08:da:4b:7e:45:f7:28:
                    5f:9b:4a:47:44:5e:79:b0:b7:4c:2d:d6:e9:2a:8a:
                    ea:cd:86:68:52:03:35:7f:ad:5a:f8:26:95:26:70:
                    21:b1:b9:f5:71:0d:83:8c:af:1d:86:08:09:80:62:
                    00:98:cf:14:bb:8d:c7:86:62:e3:a2:8b:9e:05:eb:
                    f1:92:49:f1:d2:bf:3f:24:d3:63:5a:ed:c8:b2:28:
                    ba:f5:d8:c2:6a:68:03:e2:25:4a:1f:1b:90:22:a6:
                    76:c3:db
                Exponent: 65537 (0x10001)
        X509v3 extensions:
            X509v3 Subject Key Identifier: 
                7C:5D:2E:1D:3A:0D:C1:24:36:1E:A8:62:9C:07:7D:C4:CD:36:09:35
            X509v3 Authority Key Identifier: 
                keyid:7C:5D:2E:1D:3A:0D:C1:24:36:1E:A8:62:9C:07:7D:C4:CD:36:09:35
                DirName:/C=PL/ST=Somewhere/O=SomeON/OU=SomeOUN/CN=test/emailAddress=test@test
                serial:F2:46:8B:79:DC:B7:43:70

            Netscape CA Revocation Url: 
                https://secpl.cs.put.poznan.pl/certs/secpl.crl
            X509v3 Basic Constraints: 
                CA:TRUE
            X509v3 Key Usage: 
                Certificate Sign, CRL Sign
            Netscape Cert Type: 
                SSL CA, S/MIME CA
            X509v3 Subject Alternative Name: 
                email:test@test
            X509v3 Issuer Alternative Name: 
                email:test@test
    Signature Algorithm: md5WithRSAEncryption
        7b:26:26:94:0c:df:40:da:e9:4f:99:54:85:d2:2c:86:f2:6d:
        02:9b:54:c6:aa:6d:c9:57:d8:cc:ce:12:69:2e:91:61:d1:e0:
        9a:34:cf:a8:cf:e9:49:f8:67:73:25:5e:83:37:cf:49:30:8e:
        31:df:d4:1b:08:bf:06:53:1a:12:8a:61:0c:3b:64:84:06:2f:
        80:9f:d1:df:04:c4:df:be:c2:ff:99:6f:3a:9c:3c:ba:82:0f:
        b4:1b:71:7e:30:7e:c2:0c:d5:85:83:10:5d:54:33:3b:0a:ab:
        4b:2f:ce:60:e7:51:86:98:7d:32:01:7e:97:47:d6:83:ef:2b:
        ac:53:71:5c:d9:9b:86:e2:86:d5:8f:bd:52:53:97:88:ea:0e:
        6b:8a:e6:29:dc:2e:a8:c6:44:b1:f3:1f:5d:65:a9:ce:f0:58:
        ab:6d:c0:cb:42:a1:3b:d8:84:8b:2b:21:aa:bb:24:8a:07:92:
        0d:54:99:b4:2a:bc:08:6a:b4:50:47:3d:61:70:6b:a7:0d:9c:
        23:82:d6:15:8a:68:ff:b1:84:66:43:2f:01:5b:8a:cd:86:20:
        65:9f:aa:91:5b:32:ed:02:31:d0:b2:94:2c:27:7e:7e:b9:cb:
        80:f6:94:9b:54:88:90:de:fc:ac:91:db:4e:85:20:e9:66:56:
        de:0f:55:f8:41:3f:3a:8c:d3:ac:0e:5f:69:40:76:44:89:9a:
        65:34:b1:48:fb:16:1c:db:57:08:55:20:c4:16:81:7e:84:76:
        f1:c6:b4:f4:b1:99:b3:ec:30:c3:b7:8e:bd:e7:46:66:bb:3e:
        7f:d5:1c:b7:0b:e8:4b:f1:2b:c7:8f:e4:f4:ed:3b:66:d9:f7:
        77:f0:73:86:f9:0a:d2:42:7f:61:04:ea:69:4f:83:64:c0:3d:
        4f:29:8b:6d:e1:bb:2b:3e:7b:06:89:ca:4c:6f:54:62:53:93:
        e5:71:1e:ba:c8:69:84:ba:96:ac:c7:44:d7:25:b1:09:e8:1a:
        c6:a5:a1:f4:fa:98:e9:13:aa:04:e6:eb:d0:f0:5c:d5:ed:e5:
        da:b2:d9:52:9b:9e:b4:39:5f:ff:ec:9f:0c:6e:60:47:5e:a2:
        f4:e7:42:48:ac:5f:ea:a2:7b:e0:29:bf:71:9c:bd:f2:31:ba:
        4f:16:c9:ed:fe:66:75:fa:3b:d6:ad:36:ba:43:c9:0d:94:df:
        ba:a4:8a:dc:d8:62:ff:f3:a6:e0:6e:d5:73:75:b8:b9:22:a0:
        83:b5:a8:63:39:18:49:06:14:bf:c5:28:5a:f6:48:e3:42:0a:
        b9:d6:6e:78:b6:0b:3c:4f:76:5e:0f:af:46:b1:a4:b7:16:85:
        3e:89:b6:91:37:df:10:c9
-----BEGIN CERTIFICATE-----
MIIGvTCCBKWgAwIBAgIJAPJGi3nct0NwMA0GCSqGSIb3DQEBBAUAMG0xCzAJBgNV
BAYTAlBMMRIwEAYDVQQIEwlTb21ld2hlcmUxDzANBgNVBAoTBlNvbWVPTjEQMA4G
A1UECxMHU29tZU9VTjENMAsGA1UEAxMEdGVzdDEYMBYGCSqGSIb3DQEJARYJdGVz
dEB0ZXN0MB4XDTA4MDYwMjE4MDUzMloXDTEzMDYwMTE4MDUzMlowbTELMAkGA1UE
BhMCUEwxEjAQBgNVBAgTCVNvbWV3aGVyZTEPMA0GA1UEChMGU29tZU9OMRAwDgYD
VQQLEwdTb21lT1VOMQ0wCwYDVQQDEwR0ZXN0MRgwFgYJKoZIhvcNAQkBFgl0ZXN0
QHRlc3QwggIiMA0GCSqGSIb3DQEBAQUAA4ICDwAwggIKAoICAQCziUF7LEQp/E+y
3RL9IHPgHnru2PaiJcu3oSH9eaey9yCQWYjXGkpQ76BGe2PQ3NYQzUN6R+KzcNHe
kEVK2pDvWYtUvnkWthHLr/a6eYx5tHKdng5DvKmKH+nQj956N+4PYoynmHs+EWrJ
vziyt7rPUFDWQnR6dV3aOgSbCN/nd8oByxHM+GEP4QTbdeDBdNqr2TCuQxc8zp0c
RTirHHqflSxwkSOpmD/xDQkeRs92+Akts2hFOOCH6dI2v7QCbTtKVvBKxKAz7Yc9
nrXDlIe1HKsjev+ja5+MgEEPKqJAacySHY44Y8ODDtl2jWtGIqeKWlDIqNjNKD/k
dNbFn9MJiwV6Jv5VURAwnEHKctbLlj3WVru1J4J3sJUSOeEEw9paScLh3uIXyLyS
YCQj6VoR0gb9eSU4nMpLbO1CKAFj6kwCr7Gk1JzqMVrWzI5yJ8GyVWgnkq1TqB22
+4+lbXXM5SNCoZu1EzntWD/5nCQ540WjO+Mp9ar+L+yGMSPxt54NXD7Gx2gkNFNU
1JEG2Z29ZiNb3zlPjvBjI2IlCNpLfkX3KF+bSkdEXnmwt0wt1ukqiurNhmhSAzV/
rVr4JpUmcCGxufVxDYOMrx2GCAmAYgCYzxS7jceGYuOii54F6/GSSfHSvz8k02Na
7ciyKLr12MJqaAPiJUofG5AipnbD2wIDAQABo4IBXjCCAVowHQYDVR0OBBYEFHxd
Lh06DcEkNh6oYpwHfcTNNgk1MIGfBgNVHSMEgZcwgZSAFHxdLh06DcEkNh6oYpwH
fcTNNgk1oXGkbzBtMQswCQYDVQQGEwJQTDESMBAGA1UECBMJU29tZXdoZXJlMQ8w
DQYDVQQKEwZTb21lT04xEDAOBgNVBAsTB1NvbWVPVU4xDTALBgNVBAMTBHRlc3Qx
GDAWBgkqhkiG9w0BCQEWCXRlc3RAdGVzdIIJAPJGi3nct0NwMD0GCWCGSAGG+EIB
BAQwFi5odHRwczovL3NlY3BsLmNzLnB1dC5wb3puYW4ucGwvY2VydHMvc2VjcGwu
Y3JsMAwGA1UdEwQFMAMBAf8wCwYDVR0PBAQDAgEGMBEGCWCGSAGG+EIBAQQEAwIB
BjAUBgNVHREEDTALgQl0ZXN0QHRlc3QwFAYDVR0SBA0wC4EJdGVzdEB0ZXN0MA0G
CSqGSIb3DQEBBAUAA4ICAQB7JiaUDN9A2ulPmVSF0iyG8m0Cm1TGqm3JV9jMzhJp
LpFh0eCaNM+oz+lJ+GdzJV6DN89JMI4x39QbCL8GUxoSimEMO2SEBi+An9HfBMTf
vsL/mW86nDy6gg+0G3F+MH7CDNWFgxBdVDM7CqtLL85g51GGmH0yAX6XR9aD7yus
U3Fc2ZuG4obVj71SU5eI6g5riuYp3C6oxkSx8x9dZanO8FirbcDLQqE72ISLKyGq
uySKB5INVJm0KrwIarRQRz1hcGunDZwjgtYVimj/sYRmQy8BW4rNhiBln6qRWzLt
AjHQspQsJ35+ucuA9pSbVIiQ3vyskdtOhSDpZlbeD1X4QT86jNOsDl9pQHZEiZpl
NLFI+xYc21cIVSDEFoF+hHbxxrT0sZmz7DDDt46950Zmuz5/1Ry3C+hL8SvHj+T0
7Ttm2fd38HOG+QrSQn9hBOppT4NkwD1PKYtt4bsrPnsGicpMb1RiU5PlcR66yGmE
upasx0TXJbEJ6BrGpaH0+pjpE6oE5uvQ8FzV7eXastlSm560OV//7J8MbmBHXqL0
50JIrF/qonvgKb9xnL3yMbpPFsnt/mZ1+jvWrTa6Q8kNlN+6pIrc2GL/86bgbtVz
dbi5IqCDtahjORhJBhS/xSha9kjjQgq51m54tgs8T3ZeD69GsaS3FoU+ibaRN98Q
yQ==
-----END CERTIFICATE-----
